target datalayout = "e-m:e-p270:32:32-p271:32:32-p272:64:64-i64:64-i128:128-f80:128-n8:16:32:64-S128"
target triple = "x86_64-pc-linux-gnu"

%"class.icu_77::MaybeStackArray" = type <{ ptr, i32, i8, [40 x i8], [3 x i8] }>
%"class.icu_77::UObject" = type { ptr }
%"class.icu_77::UnicodeString" = type { %"class.icu_77::Replaceable", %"union.icu_77::UnicodeString::StackBufferOrFields" }
%"class.icu_77::Replaceable" = type { %"class.icu_77::UObject" }
%"union.icu_77::UnicodeString::StackBufferOrFields" = type { %struct.anon.0, [32 x i8] }
%struct.anon.0 = type { i16, i32, i32, ptr }
%"struct.icu_77::(anonymous namespace)::CalendarDataSink" = type { %"class.icu_77::ResourceSink", %"class.icu_77::Hashtable", %"class.icu_77::Hashtable", %"class.icu_77::Hashtable", %"class.icu_77::MemoryPool", %"class.icu_77::UVector", %"class.icu_77::UnicodeString", %"class.icu_77::UnicodeString", %"class.icu_77::LocalPointer", %"class.icu_77::UnicodeString" }
%"class.icu_77::ResourceSink" = type { %"class.icu_77::UObject" }
%"class.icu_77::Hashtable" = type { ptr, %struct.UHashtable }
%struct.UHashtable = type { ptr, ptr, ptr, ptr, ptr, ptr, i32, i32, i32, i32, float, float, i8, i8 }
%"class.icu_77::MemoryPool" = type { i32, %"class.icu_77::MaybeStackArray.3" }
%"class.icu_77::MaybeStackArray.3" = type { ptr, i32, i8, [8 x ptr] }
%"class.icu_77::UVector" = type { %"class.icu_77::UObject", i32, i32, ptr, ptr, ptr }
%"class.icu_77::LocalPointer" = type { %"class.icu_77::LocalPointerBase" }
%"class.icu_77::LocalPointerBase" = type { ptr }
%"class.icu_77::CharString" = type { %"class.icu_77::MaybeStackArray", i32, [4 x i8] }
%"class.icu_77::ConstChar16Ptr" = type { ptr }

@_ZN6icu_7712_GLOBAL__N_113kLeapTagUCharE = internal constant [4 x i16] [i16 108, i16 101, i16 97, i16 112], align 2

; Function Attrs: mustprogress nounwind uwtable
define weak_odr noundef ptr @_ZNK6icu_7715MaybeStackArrayIcLi40EE8getAliasEv(ptr noundef nonnull align 8 dereferenceable(53) %0) #0 comdat align 2 {
  %2 = alloca ptr, align 8
  store ptr %0, ptr %2, align 8, !tbaa !3
  %3 = load ptr, ptr %2, align 8
  %4 = getelementptr inbounds nuw %"class.icu_77::MaybeStackArray", ptr %3, i32 0, i32 0
  %5 = load ptr, ptr %4, align 8, !tbaa !8
  ret ptr %5
}

; Function Attrs: inlinehint mustprogress nounwind uwtable
define linkonce_odr void @_ZN6icu_7713UnicodeString13setZeroLengthEv(ptr noundef nonnull align 8 dereferenceable(64) %0) #2 comdat align 2 {
  %2 = alloca ptr, align 8
  store ptr %0, ptr %2, align 8, !tbaa !50
  %3 = load ptr, ptr %2, align 8
  %4 = getelementptr inbounds nuw %"class.icu_77::UnicodeString", ptr %3, i32 0, i32 1
  %5 = getelementptr inbounds nuw %struct.anon.0, ptr %4, i32 0, i32 0
  %6 = load i16, ptr %5, align 8, !tbaa !51
  %7 = sext i16 %6 to i32
  %8 = and i32 %7, 31
  %9 = trunc i32 %8 to i16
  store i16 %9, ptr %5, align 8, !tbaa !51
  ret void
}

; Function Attrs: inlinehint mustprogress nounwind uwtable
define linkonce_odr void @_ZN6icu_7713UnicodeString10setToEmptyEv(ptr noundef nonnull align 8 dereferenceable(64) %0) #2 comdat align 2 {
  %2 = alloca ptr, align 8
  store ptr %0, ptr %2, align 8, !tbaa !50
  %3 = load ptr, ptr %2, align 8
  %4 = getelementptr inbounds nuw %"class.icu_77::UnicodeString", ptr %3, i32 0, i32 1
  %5 = getelementptr inbounds nuw %struct.anon.0, ptr %4, i32 0, i32 0
  store i16 2, ptr %5, align 8, !tbaa !51
  ret void
}

; Function Attrs: inlinehint mustprogress nounwind uwtable
define linkonce_odr noundef signext i8 @_ZNK6icu_7713UnicodeString7isBogusEv(ptr noundef nonnull align 8 dereferenceable(64) %0) #2 comdat align 2 {
  %2 = alloca ptr, align 8
  store ptr %0, ptr %2, align 8, !tbaa !50
  %3 = load ptr, ptr %2, align 8
  %4 = getelementptr inbounds nuw %"class.icu_77::UnicodeString", ptr %3, i32 0, i32 1
  %5 = getelementptr inbounds nuw %struct.anon.0, ptr %4, i32 0, i32 0
  %6 = load i16, ptr %5, align 8, !tbaa !51
  %7 = sext i16 %6 to i32
  %8 = and i32 %7, 1
  %9 = trunc i32 %8 to i8
  ret i8 %9
}

; Function Attrs: inlinehint mustprogress nounwind uwtable
define linkonce_odr void @_ZN6icu_7714ConstChar16PtrD2Ev(ptr noundef nonnull align 8 dereferenceable(8) %0) unnamed_addr #2 comdat align 2 {
  %2 = alloca ptr, align 8
  store ptr %0, ptr %2, align 8, !tbaa !180
  %3 = load ptr, ptr %2, align 8
  %4 = getelementptr inbounds nuw %"class.icu_77::ConstChar16Ptr", ptr %3, i32 0, i32 0
  %5 = load ptr, ptr %4, align 8, !tbaa !184
  call void asm sideeffect "", "rm,~{memory},~{dirflag},~{fpsr},~{flags}"(ptr %5) #14, !srcloc !186
  ret void
}

; Function Attrs: inlinehint mustprogress nounwind uwtable
define linkonce_odr void @_ZN6icu_7714ConstChar16PtrC2EPKDs(ptr noundef nonnull align 8 dereferenceable(8) %0, ptr noundef %1) unnamed_addr #2 comdat align 2 {
  %3 = alloca ptr, align 8
  %4 = alloca ptr, align 8
  store ptr %0, ptr %3, align 8, !tbaa !180
  store ptr %1, ptr %4, align 8, !tbaa !182
  %5 = load ptr, ptr %3, align 8
  %6 = getelementptr inbounds nuw %"class.icu_77::ConstChar16Ptr", ptr %5, i32 0, i32 0
  %7 = load ptr, ptr %4, align 8, !tbaa !182
  store ptr %7, ptr %6, align 8, !tbaa !184
  ret void
}

; Function Attrs: inlinehint mustprogress uwtable
define linkonce_odr noundef ptr @_ZNK6icu_779Hashtable3getERKNS_13UnicodeStringE(ptr noundef nonnull align 8 dereferenceable(88) %0, ptr noundef nonnull align 8 dereferenceable(64) %1) #3 comdat align 2 {
  %3 = alloca ptr, align 8
  %4 = alloca ptr, align 8
  store ptr %0, ptr %3, align 8, !tbaa !187
  store ptr %1, ptr %4, align 8, !tbaa !50
  %5 = load ptr, ptr %3, align 8
  %6 = getelementptr inbounds nuw %"class.icu_77::Hashtable", ptr %5, i32 0, i32 0
  %7 = load ptr, ptr %6, align 8, !tbaa !222
  %8 = load ptr, ptr %4, align 8, !tbaa !50
  %9 = call ptr @uhash_get_77(ptr noundef %7, ptr noundef %8)
  ret ptr %9
}

; Function Attrs: mustprogress nounwind uwtable
define linkonce_odr noundef ptr @_ZN6icu_7710CharString4dataEv(ptr noundef nonnull align 8 dereferenceable(60) %0) #0 comdat align 2 {
  %2 = alloca ptr, align 8
  store ptr %0, ptr %2, align 8, !tbaa !142
  %3 = load ptr, ptr %2, align 8
  %4 = getelementptr inbounds nuw %"class.icu_77::CharString", ptr %3, i32 0, i32 0
  %5 = call noundef ptr @_ZNK6icu_7715MaybeStackArrayIcLi40EE8getAliasEv(ptr noundef nonnull align 8 dereferenceable(53) %4)
  ret ptr %5
}

; Function Attrs: inlinehint mustprogress nounwind uwtable
define internal noundef signext i8 @_ZL9U_SUCCESS10UErrorCode(i32 noundef %0) #2 {
  %2 = alloca i32, align 4
  store i32 %0, ptr %2, align 4, !tbaa !15
  %3 = load i32, ptr %2, align 4, !tbaa !15
  %4 = icmp sle i32 %3, 0
  %5 = zext i1 %4 to i8
  ret i8 %5
}

; Function Attrs: inlinehint mustprogress uwtable
define linkonce_odr noundef nonnull align 8 dereferenceable(64) ptr @_ZN6icu_7713UnicodeString6removeEv(ptr noundef nonnull align 8 dereferenceable(64) %0) #3 comdat align 2 {
  %2 = alloca ptr, align 8
  store ptr %0, ptr %2, align 8, !tbaa !50
  %3 = load ptr, ptr %2, align 8
  %4 = call noundef signext i8 @_ZNK6icu_7713UnicodeString7isBogusEv(ptr noundef nonnull align 8 dereferenceable(64) %3)
  %5 = icmp ne i8 %4, 0
  br i1 %5, label %6, label %7

6:                                                ; preds = %1
  call void @_ZN6icu_7713UnicodeString10setToEmptyEv(ptr noundef nonnull align 8 dereferenceable(64) %3)
  br label %8

7:                                                ; preds = %1
  call void @_ZN6icu_7713UnicodeString13setZeroLengthEv(ptr noundef nonnull align 8 dereferenceable(64) %3)
  br label %8

8:                                                ; preds = %7, %6
  ret ptr %3
}

; Function Attrs: mustprogress uwtable
define internal void @_ZN6icu_77L20initLeapMonthPatternEPNS_13UnicodeStringEiRNS_12_GLOBAL__N_116CalendarDataSinkERNS_10CharStringER10UErrorCode(ptr noundef %0, i32 noundef %1, ptr noundef nonnull align 8 dereferenceable(600) %2, ptr noundef nonnull align 8 dereferenceable(60) %3, ptr noundef nonnull align 4 dereferenceable(4) %4) #1 personality ptr @__gxx_personality_v0 {
  %6 = alloca ptr, align 8
  %7 = alloca i32, align 4
  %8 = alloca ptr, align 8
  %9 = alloca ptr, align 8
  %10 = alloca ptr, align 8
  %11 = alloca %"class.icu_77::UnicodeString", align 8
  %12 = alloca ptr, align 8
  %13 = alloca ptr, align 8
  %14 = alloca i32, align 4
  %15 = alloca %"class.icu_77::UnicodeString", align 8
  %16 = alloca %"class.icu_77::ConstChar16Ptr", align 8
  %17 = alloca ptr, align 8
  %18 = alloca i32, align 4
  store ptr %0, ptr %6, align 8, !tbaa !50
  store i32 %1, ptr %7, align 4, !tbaa !14
  store ptr %2, ptr %8, align 8, !tbaa !168
  store ptr %3, ptr %9, align 8, !tbaa !142
  store ptr %4, ptr %10, align 8, !tbaa !22
  %19 = load ptr, ptr %6, align 8, !tbaa !50
  %20 = load i32, ptr %7, align 4, !tbaa !14
  %21 = sext i32 %20 to i64
  %22 = getelementptr inbounds %"class.icu_77::UnicodeString", ptr %19, i64 %21
  %23 = call noundef nonnull align 8 dereferenceable(64) ptr @_ZN6icu_7713UnicodeString6removeEv(ptr noundef nonnull align 8 dereferenceable(64) %22)
  %24 = load ptr, ptr %10, align 8, !tbaa !22
  %25 = load i32, ptr %24, align 4, !tbaa !15
  %26 = call noundef signext i8 @_ZL9U_SUCCESS10UErrorCode(i32 noundef %25)
  %27 = icmp ne i8 %26, 0
  br i1 %27, label %28, label %83

28:                                               ; preds = %5
  call void @llvm.lifetime.start.p0(i64 64, ptr %11) #14
  %29 = load ptr, ptr %9, align 8, !tbaa !142
  %30 = call noundef ptr @_ZN6icu_7710CharString4dataEv(ptr noundef nonnull align 8 dereferenceable(60) %29)
  call void @_ZN6icu_7713UnicodeStringC1EPKciNS0_10EInvariantE(ptr noundef nonnull align 8 dereferenceable(64) %11, ptr noundef %30, i32 noundef -1, i32 noundef 0)
  call void @llvm.lifetime.start.p0(i64 8, ptr %12) #14
  %31 = load ptr, ptr %8, align 8, !tbaa !168
  %32 = getelementptr inbounds nuw %"struct.icu_77::(anonymous namespace)::CalendarDataSink", ptr %31, i32 0, i32 3
  %33 = invoke noundef ptr @_ZNK6icu_779Hashtable3getERKNS_13UnicodeStringE(ptr noundef nonnull align 8 dereferenceable(88) %32, ptr noundef nonnull align 8 dereferenceable(64) %11)
          to label %34 unwind label %53

34:                                               ; preds = %28
  store ptr %33, ptr %12, align 8, !tbaa !187
  %35 = load ptr, ptr %12, align 8, !tbaa !187
  %36 = icmp ne ptr %35, null
  br i1 %36, label %37, label %77

37:                                               ; preds = %34
  call void @llvm.lifetime.start.p0(i64 64, ptr %15) #14
  invoke void @_ZN6icu_7714ConstChar16PtrC2EPKDs(ptr noundef nonnull align 8 dereferenceable(8) %16, ptr noundef @_ZN6icu_7712_GLOBAL__N_113kLeapTagUCharE)
          to label %38 unwind label %57

38:                                               ; preds = %37
  invoke void @_ZN6icu_7713UnicodeStringC1EaNS_14ConstChar16PtrEi(ptr noundef nonnull align 8 dereferenceable(64) %15, i8 noundef signext 0, ptr noundef %16, i32 noundef 4)
          to label %39 unwind label %61

39:                                               ; preds = %38
  call void @_ZN6icu_7714ConstChar16PtrD2Ev(ptr noundef nonnull align 8 dereferenceable(8) %16) #14
  call void @llvm.lifetime.start.p0(i64 8, ptr %17) #14
  %40 = load ptr, ptr %12, align 8, !tbaa !187
  %41 = invoke noundef ptr @_ZNK6icu_779Hashtable3getERKNS_13UnicodeStringE(ptr noundef nonnull align 8 dereferenceable(88) %40, ptr noundef nonnull align 8 dereferenceable(64) %15)
          to label %42 unwind label %65

42:                                               ; preds = %39
  store ptr %41, ptr %17, align 8, !tbaa !50
  %43 = load ptr, ptr %17, align 8, !tbaa !50
  %44 = icmp ne ptr %43, null
  br i1 %44, label %45, label %69

45:                                               ; preds = %42
  %46 = load ptr, ptr %6, align 8, !tbaa !50
  %47 = load i32, ptr %7, align 4, !tbaa !14
  %48 = sext i32 %47 to i64
  %49 = getelementptr inbounds %"class.icu_77::UnicodeString", ptr %46, i64 %48
  %50 = load ptr, ptr %17, align 8, !tbaa !50
  %51 = invoke noundef nonnull align 8 dereferenceable(64) ptr @_ZN6icu_7713UnicodeString12fastCopyFromERKS0_(ptr noundef nonnull align 8 dereferenceable(64) %49, ptr noundef nonnull align 8 dereferenceable(64) %50)
          to label %52 unwind label %65

52:                                               ; preds = %45
  br label %75

53:                                               ; preds = %28
  %54 = landingpad { ptr, i32 }
          cleanup
  %55 = extractvalue { ptr, i32 } %54, 0
  store ptr %55, ptr %13, align 8
  %56 = extractvalue { ptr, i32 } %54, 1
  store i32 %56, ptr %14, align 4
  br label %82

57:                                               ; preds = %37
  %58 = landingpad { ptr, i32 }
          cleanup
  %59 = extractvalue { ptr, i32 } %58, 0
  store ptr %59, ptr %13, align 8
  %60 = extractvalue { ptr, i32 } %58, 1
  store i32 %60, ptr %14, align 4
  br label %76

61:                                               ; preds = %38
  %62 = landingpad { ptr, i32 }
          cleanup
  %63 = extractvalue { ptr, i32 } %62, 0
  store ptr %63, ptr %13, align 8
  %64 = extractvalue { ptr, i32 } %62, 1
  store i32 %64, ptr %14, align 4
  call void @_ZN6icu_7714ConstChar16PtrD2Ev(ptr noundef nonnull align 8 dereferenceable(8) %16) #14
  br label %76

65:                                               ; preds = %69, %45, %39
  %66 = landingpad { ptr, i32 }
          cleanup
  %67 = extractvalue { ptr, i32 } %66, 0
  store ptr %67, ptr %13, align 8
  %68 = extractvalue { ptr, i32 } %66, 1
  store i32 %68, ptr %14, align 4
  call void @llvm.lifetime.end.p0(i64 8, ptr %17) #14
  call void @_ZN6icu_7713UnicodeStringD1Ev(ptr noundef nonnull align 8 dereferenceable(64) %15) #14
  br label %76

69:                                               ; preds = %42
  %70 = load ptr, ptr %6, align 8, !tbaa !50
  %71 = load i32, ptr %7, align 4, !tbaa !14
  %72 = sext i32 %71 to i64
  %73 = getelementptr inbounds %"class.icu_77::UnicodeString", ptr %70, i64 %72
  invoke void @_ZN6icu_7713UnicodeString10setToBogusEv(ptr noundef nonnull align 8 dereferenceable(64) %73)
          to label %74 unwind label %65

74:                                               ; preds = %69
  br label %75

75:                                               ; preds = %74, %52
  store i32 1, ptr %18, align 4
  call void @llvm.lifetime.end.p0(i64 8, ptr %17) #14
  call void @_ZN6icu_7713UnicodeStringD1Ev(ptr noundef nonnull align 8 dereferenceable(64) %15) #14
  call void @llvm.lifetime.end.p0(i64 64, ptr %15) #14
  br label %79

76:                                               ; preds = %65, %61, %57
  call void @llvm.lifetime.end.p0(i64 64, ptr %15) #14
  br label %82

77:                                               ; preds = %34
  %78 = load ptr, ptr %10, align 8, !tbaa !22
  store i32 2, ptr %78, align 4, !tbaa !15
  store i32 0, ptr %18, align 4
  br label %79

79:                                               ; preds = %77, %75
  call void @llvm.lifetime.end.p0(i64 8, ptr %12) #14
  call void @_ZN6icu_7713UnicodeStringD1Ev(ptr noundef nonnull align 8 dereferenceable(64) %11) #14
  call void @llvm.lifetime.end.p0(i64 64, ptr %11) #14
  %80 = load i32, ptr %18, align 4
  switch i32 %80, label %89 [
    i32 0, label %81
    i32 1, label %83
  ]

81:                                               ; preds = %79
  br label %83

82:                                               ; preds = %76, %53
  call void @llvm.lifetime.end.p0(i64 8, ptr %12) #14
  call void @_ZN6icu_7713UnicodeStringD1Ev(ptr noundef nonnull align 8 dereferenceable(64) %11) #14
  call void @llvm.lifetime.end.p0(i64 64, ptr %11) #14
  br label %84

83:                                               ; preds = %79, %81, %5
  ret void

84:                                               ; preds = %82
  %85 = load ptr, ptr %13, align 8
  %86 = load i32, ptr %14, align 4
  %87 = insertvalue { ptr, i32 } poison, ptr %85, 0
  %88 = insertvalue { ptr, i32 } %87, i32 %86, 1
  resume { ptr, i32 } %88

89:                                               ; preds = %79
  unreachable
}