; Function Attrs: mustprogress uwtable
define internal fastcc void @_ZN6icu_77L20initLeapMonthPatternEPNS_13UnicodeStringEiRNS_12_GLOBAL__N_116CalendarDataSinkERNS_10CharStringER10UErrorCode(ptr noundef %0, i32 noundef range(i32 0, 7) %1, ptr noundef nonnull readonly align 8 captures(none) dereferenceable(600) %2, ptr noundef nonnull readonly align 8 captures(none) dereferenceable(60) %3, ptr noundef nonnull align 4 captures(none) dereferenceable(4) %4) unnamed_addr #1 personality ptr @__gxx_personality_v0 {
  %6 = alloca %"class.icu_77::UnicodeString", align 8
  %7 = alloca %"class.icu_77::UnicodeString", align 8
  %8 = alloca %"class.icu_77::ConstChar16Ptr", align 8
  %9 = zext nneg i32 %1 to i64
  %10 = getelementptr inbounds nuw %"class.icu_77::UnicodeString", ptr %0, i64 %9
  %11 = getelementptr inbounds nuw i8, ptr %10, i64 8
  %12 = load i16, ptr %11, align 8, !tbaa !23
  %13 = and i16 %12, 1
  %.not.i = icmp eq i16 %13, 0
  %14 = and i16 %12, 30
  %storemerge.i = select i1 %.not.i, i16 %14, i16 2
  store i16 %storemerge.i, ptr %11, align 8, !tbaa !23
  %15 = load i32, ptr %4, align 4, !tbaa !13
  %16 = icmp sgt i32 %15, 0
  br i1 %16, label %42, label %17

17:                                               ; preds = %5
  call void @llvm.lifetime.start.p0(i64 64, ptr nonnull %6) #19
  %18 = load ptr, ptr %3, align 8, !tbaa !3
  call void @_ZN6icu_7713UnicodeStringC1EPKciNS0_10EInvariantE(ptr noundef nonnull align 8 dereferenceable(64) %6, ptr noundef %18, i32 noundef -1, i32 noundef 0)
  %19 = getelementptr inbounds nuw i8, ptr %2, i64 184
  %20 = load ptr, ptr %19, align 8, !tbaa !100
  %21 = invoke noundef ptr @uhash_get_77(ptr noundef %20, ptr noundef nonnull align 8 dereferenceable(64) %6)
          to label %_ZNK6icu_779Hashtable3getERKNS_13UnicodeStringE.exit unwind label %29

_ZNK6icu_779Hashtable3getERKNS_13UnicodeStringE.exit: ; preds = %17
  %.not19 = icmp eq ptr %21, null
  br i1 %.not19, label %39, label %22

22:                                               ; preds = %_ZNK6icu_779Hashtable3getERKNS_13UnicodeStringE.exit
  call void @llvm.lifetime.start.p0(i64 64, ptr nonnull %7) #19
  store ptr @_ZN6icu_7712_GLOBAL__N_113kLeapTagUCharE, ptr %8, align 8, !tbaa !121
  invoke void @_ZN6icu_7713UnicodeStringC1EaNS_14ConstChar16PtrEi(ptr noundef nonnull align 8 dereferenceable(64) %7, i8 noundef signext 0, ptr noundef nonnull %8, i32 noundef 4)
          to label %23 unwind label %31

23:                                               ; preds = %22
  %24 = load ptr, ptr %8, align 8, !tbaa !121
  call void asm sideeffect "", "rm,~{memory},~{dirflag},~{fpsr},~{flags}"(ptr %24) #19, !srcloc !124
  %25 = load ptr, ptr %21, align 8, !tbaa !100
  %26 = invoke noundef ptr @uhash_get_77(ptr noundef %25, ptr noundef nonnull align 8 dereferenceable(64) %7)
          to label %_ZNK6icu_779Hashtable3getERKNS_13UnicodeStringE.exit23 unwind label %34

_ZNK6icu_779Hashtable3getERKNS_13UnicodeStringE.exit23: ; preds = %23
  %.not20 = icmp eq ptr %26, null
  br i1 %.not20, label %36, label %27

27:                                               ; preds = %_ZNK6icu_779Hashtable3getERKNS_13UnicodeStringE.exit23
  %28 = invoke noundef nonnull align 8 dereferenceable(64) ptr @_ZN6icu_7713UnicodeString12fastCopyFromERKS0_(ptr noundef nonnull align 8 dereferenceable(64) %10, ptr noundef nonnull align 8 dereferenceable(64) %26)
          to label %37 unwind label %34

29:                                               ; preds = %17
  %30 = landingpad { ptr, i32 }
          cleanup
  br label %41

31:                                               ; preds = %22
  %32 = landingpad { ptr, i32 }
          cleanup
  %33 = load ptr, ptr %8, align 8, !tbaa !121
  call void asm sideeffect "", "rm,~{memory},~{dirflag},~{fpsr},~{flags}"(ptr %33) #19, !srcloc !124
  br label %38

34:                                               ; preds = %23, %36, %27
  %35 = landingpad { ptr, i32 }
          cleanup
  call void @_ZN6icu_7713UnicodeStringD1Ev(ptr noundef nonnull align 8 dereferenceable(64) %7) #19
  br label %38

36:                                               ; preds = %_ZNK6icu_779Hashtable3getERKNS_13UnicodeStringE.exit23
  invoke void @_ZN6icu_7713UnicodeString10setToBogusEv(ptr noundef nonnull align 8 dereferenceable(64) %10)
          to label %37 unwind label %34

37:                                               ; preds = %36, %27
  call void @_ZN6icu_7713UnicodeStringD1Ev(ptr noundef nonnull align 8 dereferenceable(64) %7) #19
  call void @llvm.lifetime.end.p0(i64 64, ptr nonnull %7) #19
  br label %40

38:                                               ; preds = %34, %31
  %.pn = phi { ptr, i32 } [ %35, %34 ], [ %32, %31 ]
  call void @llvm.lifetime.end.p0(i64 64, ptr nonnull %7) #19
  br label %41

39:                                               ; preds = %_ZNK6icu_779Hashtable3getERKNS_13UnicodeStringE.exit
  store i32 2, ptr %4, align 4, !tbaa !13
  br label %40

40:                                               ; preds = %39, %37
  call void @_ZN6icu_7713UnicodeStringD1Ev(ptr noundef nonnull align 8 dereferenceable(64) %6) #19
  call void @llvm.lifetime.end.p0(i64 64, ptr nonnull %6) #19
  br label %42

41:                                               ; preds = %38, %29
  %.pn.pn = phi { ptr, i32 } [ %.pn, %38 ], [ %30, %29 ]
  call void @_ZN6icu_7713UnicodeStringD1Ev(ptr noundef nonnull align 8 dereferenceable(64) %6) #19
  call void @llvm.lifetime.end.p0(i64 64, ptr nonnull %6) #19
  resume { ptr, i32 } %.pn.pn

42:                                               ; preds = %40, %5
  ret void
}